target datalayout = "e-m:e-p270:32:32-p271:32:32-p272:64:64-i64:64-i128:128-f80:128-n8:16:32:64-S128"
target triple = "x86_64-pc-linux-gnu"

@.str.1750 = private unnamed_addr constant [16 x i8] c"<Not Specified>\00", align 1
@.str.1751 = private unnamed_addr constant [1 x i8] zeroinitializer, align 1

; Function Attrs: nounwind uwtable
define internal i32 @align_4(ptr noundef %0, i32 noundef %1) #0 {
  %3 = alloca i32, align 4
  %4 = alloca ptr, align 8
  %5 = alloca i32, align 4
  store ptr %0, ptr %4, align 8
  store i32 %1, ptr %5, align 4
  %6 = load ptr, ptr %4, align 8
  %7 = load i32, ptr %5, align 4
  %8 = call i32 @tvb_captured_length_remaining(ptr noundef %6, i32 noundef %7)
  %9 = icmp sgt i32 %8, 4
  br i1 %9, label %10, label %13

10:                                               ; preds = %2
  %11 = load i32, ptr %5, align 4
  %12 = srem i32 %11, 4
  store i32 %12, ptr %3, align 4
  br label %14

13:                                               ; preds = %2
  store i32 0, ptr %3, align 4
  br label %14

14:                                               ; preds = %13, %10
  %15 = load i32, ptr %3, align 4
  ret i32 %15
}

; Function Attrs: nounwind uwtable
define internal i32 @ndps_string(ptr noundef %0, i32 noundef %1, ptr noundef %2, i32 noundef %3, ptr noundef %4) #0 {
  %6 = alloca i32, align 4
  %7 = alloca ptr, align 8
  %8 = alloca i32, align 4
  %9 = alloca ptr, align 8
  %10 = alloca i32, align 4
  %11 = alloca ptr, align 8
  %12 = alloca i32, align 4
  %13 = alloca i32, align 4
  %14 = alloca ptr, align 8
  store ptr %0, ptr %7, align 8
  store i32 %1, ptr %8, align 4
  store ptr %2, ptr %9, align 8
  store i32 %3, ptr %10, align 4
  store ptr %4, ptr %11, align 8
  %15 = load i32, ptr %10, align 4
  store i32 %15, ptr %12, align 4
  %16 = load ptr, ptr %7, align 8
  %17 = load i32, ptr %12, align 4
  %18 = call i32 @tvb_get_ntohl(ptr noundef %16, i32 noundef %17)
  store i32 %18, ptr %13, align 4
  %19 = load i32, ptr %12, align 4
  %20 = add i32 %19, 4
  store i32 %20, ptr %12, align 4
  %21 = load i32, ptr %13, align 4
  %22 = icmp eq i32 %21, 0
  br i1 %22, label %23, label %37

23:                                               ; preds = %5
  %24 = load ptr, ptr %9, align 8
  %25 = load i32, ptr %8, align 4
  %26 = load ptr, ptr %7, align 8
  %27 = load i32, ptr %10, align 4
  %28 = call ptr @proto_tree_add_string(ptr noundef %24, i32 noundef %25, ptr noundef %26, i32 noundef %27, i32 noundef 4, ptr noundef @.str.1750)
  %29 = load ptr, ptr %11, align 8
  %30 = icmp ne ptr %29, null
  br i1 %30, label %31, label %35

31:                                               ; preds = %23
  %32 = call ptr @wmem_packet_scope()
  %33 = call noalias ptr @wmem_strdup(ptr noundef %32, ptr noundef @.str.1751)
  %34 = load ptr, ptr %11, align 8
  store ptr %33, ptr %34, align 8
  br label %35

35:                                               ; preds = %31, %23
  %36 = load i32, ptr %12, align 4
  store i32 %36, ptr %6, align 4
  br label %87

37:                                               ; preds = %5
  %38 = load i32, ptr %13, align 4
  %39 = icmp ule i32 %38, 2
  br i1 %39, label %51, label %40

40:                                               ; preds = %37
  %41 = load i32, ptr %13, align 4
  %42 = and i32 %41, 1
  %43 = icmp ne i32 %42, 0
  br i1 %43, label %51, label %44

44:                                               ; preds = %40
  %45 = load ptr, ptr %7, align 8
  %46 = load i32, ptr %12, align 4
  %47 = add i32 %46, 1
  %48 = call zeroext i8 @tvb_get_guint8(ptr noundef %45, i32 noundef %47)
  %49 = zext i8 %48 to i32
  %50 = icmp ne i32 %49, 0
  br i1 %50, label %51, label %57

51:                                               ; preds = %44, %40, %37
  %52 = call ptr @wmem_packet_scope()
  %53 = load ptr, ptr %7, align 8
  %54 = load i32, ptr %12, align 4
  %55 = load i32, ptr %13, align 4
  %56 = call ptr @tvb_get_string_enc(ptr noundef %52, ptr noundef %53, i32 noundef %54, i32 noundef %55, i32 noundef 0)
  store ptr %56, ptr %14, align 8
  br label %63

57:                                               ; preds = %44
  %58 = call ptr @wmem_packet_scope()
  %59 = load ptr, ptr %7, align 8
  %60 = load i32, ptr %12, align 4
  %61 = load i32, ptr %13, align 4
  %62 = call ptr @tvb_get_string_enc(ptr noundef %58, ptr noundef %59, i32 noundef %60, i32 noundef %61, i32 noundef -2147483644)
  store ptr %62, ptr %14, align 8
  br label %63

63:                                               ; preds = %57, %51
  %64 = load i32, ptr %13, align 4
  %65 = load i32, ptr %12, align 4
  %66 = add i32 %65, %64
  store i32 %66, ptr %12, align 4
  %67 = load ptr, ptr %9, align 8
  %68 = load i32, ptr %8, align 4
  %69 = load ptr, ptr %7, align 8
  %70 = load i32, ptr %10, align 4
  %71 = load i32, ptr %13, align 4
  %72 = add i32 %71, 4
  %73 = load ptr, ptr %14, align 8
  %74 = call ptr @proto_tree_add_string(ptr noundef %67, i32 noundef %68, ptr noundef %69, i32 noundef %70, i32 noundef %72, ptr noundef %73)
  %75 = load ptr, ptr %7, align 8
  %76 = load i32, ptr %12, align 4
  %77 = call i32 @align_4(ptr noundef %75, i32 noundef %76)
  %78 = load i32, ptr %12, align 4
  %79 = add i32 %78, %77
  store i32 %79, ptr %12, align 4
  %80 = load ptr, ptr %11, align 8
  %81 = icmp ne ptr %80, null
  br i1 %81, label %82, label %85

82:                                               ; preds = %63
  %83 = load ptr, ptr %14, align 8
  %84 = load ptr, ptr %11, align 8
  store ptr %83, ptr %84, align 8
  br label %85

85:                                               ; preds = %82, %63
  %86 = load i32, ptr %12, align 4
  store i32 %86, ptr %6, align 4
  br label %87

87:                                               ; preds = %85, %35
  %88 = load i32, ptr %6, align 4
  ret i32 %88
}