; Function Attrs: nounwind uwtable
define internal fastcc i32 @ndps_string(ptr noundef %0, i32 noundef %1, ptr noundef %2, i32 noundef %3, ptr noundef writeonly %4) unnamed_addr #0 {
  %6 = tail call i32 @tvb_get_ntohl(ptr noundef %0, i32 noundef %3) #6
  %7 = add i32 %3, 4
  %8 = icmp eq i32 %6, 0
  br i1 %8, label %9, label %14

9:                                                ; preds = %5
  %10 = tail call ptr @proto_tree_add_string(ptr noundef %2, i32 noundef %1, ptr noundef %0, i32 noundef %3, i32 noundef 4, ptr noundef nonnull @.str.1750) #6
  %.not42 = icmp eq ptr %4, null
  br i1 %.not42, label %30, label %11

11:                                               ; preds = %9
  %12 = tail call ptr @wmem_packet_scope() #6
  %13 = tail call noalias ptr @wmem_strdup(ptr noundef %12, ptr noundef nonnull @.str.1751) #6
  br label %.sink.split

14:                                               ; preds = %5
  %15 = icmp ugt i32 %6, 2
  %16 = and i32 %6, 1
  %.not = icmp eq i32 %16, 0
  %or.cond = and i1 %15, %.not
  br i1 %or.cond, label %17, label %20

17:                                               ; preds = %14
  %18 = add i32 %3, 5
  %19 = tail call zeroext i8 @tvb_get_guint8(ptr noundef %0, i32 noundef %18) #6
  %.not40 = icmp eq i8 %19, 0
  %spec.select = select i1 %.not40, i32 -2147483644, i32 0
  br label %20

20:                                               ; preds = %17, %14
  %.sink43 = phi i32 [ 0, %14 ], [ %spec.select, %17 ]
  %21 = tail call ptr @wmem_packet_scope() #6
  %22 = tail call ptr @tvb_get_string_enc(ptr noundef %21, ptr noundef %0, i32 noundef %7, i32 noundef %6, i32 noundef %.sink43) #6
  %23 = add i32 %6, %7
  %24 = add i32 %6, 4
  %25 = tail call ptr @proto_tree_add_string(ptr noundef %2, i32 noundef %1, ptr noundef %0, i32 noundef %3, i32 noundef %24, ptr noundef %22) #6
  %26 = tail call i32 @tvb_captured_length_remaining(ptr noundef %0, i32 noundef %23) #6
  %27 = icmp sgt i32 %26, 4
  %28 = srem i32 %23, 4
  %.0.i = select i1 %27, i32 %28, i32 0
  %29 = add i32 %.0.i, %23
  %.not41 = icmp eq ptr %4, null
  br i1 %.not41, label %30, label %.sink.split

.sink.split:                                      ; preds = %20, %11
  %.sink = phi ptr [ %13, %11 ], [ %22, %20 ]
  %.037.ph = phi i32 [ %7, %11 ], [ %29, %20 ]
  store ptr %.sink, ptr %4, align 8
  br label %30

30:                                               ; preds = %.sink.split, %20, %9
  %.037 = phi i32 [ %7, %9 ], [ %29, %20 ], [ %.037.ph, %.sink.split ]
  ret i32 %.037
}